target datalayout = "e-m:e-p270:32:32-p271:32:32-p272:64:64-i64:64-i128:128-f80:128-n8:16:32:64-S128"
target triple = "x86_64-pc-linux-gnu"

%"class.llvm::DiagnosticInfo.base" = type <{ ptr, i32, i8 }>
%"class.llvm::DiagnosticInfoPGOProfile" = type { %"class.llvm::DiagnosticInfo.base", ptr, ptr }

@.str.3 = private unnamed_addr constant [3 x i8] c": \00", align 1

; Function Attrs: mustprogress nounwind uwtable
define linkonce_odr hidden noundef nonnull align 8 dereferenceable(34) ptr @_ZNK4llvm24DiagnosticInfoPGOProfile6getMsgEv(ptr noundef nonnull align 8 dereferenceable(32) %0) #0 comdat align 2 {
  %2 = alloca ptr, align 8
  store ptr %0, ptr %2, align 8
  %3 = load ptr, ptr %2, align 8
  %4 = getelementptr inbounds nuw %"class.llvm::DiagnosticInfoPGOProfile", ptr %3, i32 0, i32 2
  %5 = load ptr, ptr %4, align 8
  ret ptr %5
}

; Function Attrs: mustprogress nounwind uwtable
define linkonce_odr hidden noundef ptr @_ZNK4llvm24DiagnosticInfoPGOProfile11getFileNameEv(ptr noundef nonnull align 8 dereferenceable(32) %0) #0 comdat align 2 {
  %2 = alloca ptr, align 8
  store ptr %0, ptr %2, align 8
  %3 = load ptr, ptr %2, align 8
  %4 = getelementptr inbounds nuw %"class.llvm::DiagnosticInfoPGOProfile", ptr %3, i32 0, i32 1
  %5 = load ptr, ptr %4, align 8
  ret ptr %5
}

; Function Attrs: mustprogress nounwind uwtable
define dso_local void @_ZNK4llvm24DiagnosticInfoPGOProfile5printERNS_17DiagnosticPrinterE(ptr noundef nonnull align 8 dereferenceable(32) %0, ptr noundef nonnull align 8 dereferenceable(8) %1) unnamed_addr #0 align 2 {
  %3 = alloca ptr, align 8
  %4 = alloca ptr, align 8
  store ptr %0, ptr %3, align 8
  store ptr %1, ptr %4, align 8
  %5 = load ptr, ptr %3, align 8
  %6 = call noundef ptr @_ZNK4llvm24DiagnosticInfoPGOProfile11getFileNameEv(ptr noundef nonnull align 8 dereferenceable(32) %5)
  %7 = icmp ne ptr %6, null
  br i1 %7, label %8, label %19

8:                                                ; preds = %2
  %9 = load ptr, ptr %4, align 8
  %10 = call noundef ptr @_ZNK4llvm24DiagnosticInfoPGOProfile11getFileNameEv(ptr noundef nonnull align 8 dereferenceable(32) %5)
  %11 = load ptr, ptr %9, align 8
  %12 = getelementptr inbounds ptr, ptr %11, i64 6
  %13 = load ptr, ptr %12, align 8
  %14 = call noundef nonnull align 8 dereferenceable(8) ptr %13(ptr noundef nonnull align 8 dereferenceable(8) %9, ptr noundef %10)
  %15 = load ptr, ptr %14, align 8
  %16 = getelementptr inbounds ptr, ptr %15, i64 6
  %17 = load ptr, ptr %16, align 8
  %18 = call noundef nonnull align 8 dereferenceable(8) ptr %17(ptr noundef nonnull align 8 dereferenceable(8) %14, ptr noundef @.str.3)
  br label %19

19:                                               ; preds = %8, %2
  %20 = load ptr, ptr %4, align 8
  %21 = call noundef nonnull align 8 dereferenceable(34) ptr @_ZNK4llvm24DiagnosticInfoPGOProfile6getMsgEv(ptr noundef nonnull align 8 dereferenceable(32) %5)
  %22 = load ptr, ptr %20, align 8
  %23 = getelementptr inbounds ptr, ptr %22, i64 16
  %24 = load ptr, ptr %23, align 8
  %25 = call noundef nonnull align 8 dereferenceable(8) ptr %24(ptr noundef nonnull align 8 dereferenceable(8) %20, ptr noundef nonnull align 8 dereferenceable(34) %21)
  ret void
}