; Function Attrs: mustprogress nounwind uwtable
define dso_local void @_ZNK4llvm24DiagnosticInfoPGOProfile5printERNS_17DiagnosticPrinterE(ptr noundef nonnull readonly align 8 captures(none) dereferenceable(32) %0, ptr noundef nonnull align 8 dereferenceable(8) %1) unnamed_addr #1 align 2 {
  %3 = getelementptr inbounds nuw i8, ptr %0, i64 16
  %4 = load ptr, ptr %3, align 8
  %.not = icmp eq ptr %4, null
  br i1 %.not, label %14, label %5

5:                                                ; preds = %2
  %6 = load ptr, ptr %1, align 8
  %7 = getelementptr inbounds nuw i8, ptr %6, i64 48
  %8 = load ptr, ptr %7, align 8
  %9 = tail call noundef nonnull align 8 dereferenceable(8) ptr %8(ptr noundef nonnull align 8 dereferenceable(8) %1, ptr noundef nonnull %4) #16
  %10 = load ptr, ptr %9, align 8
  %11 = getelementptr inbounds nuw i8, ptr %10, i64 48
  %12 = load ptr, ptr %11, align 8
  %13 = tail call noundef nonnull align 8 dereferenceable(8) ptr %12(ptr noundef nonnull align 8 dereferenceable(8) %9, ptr noundef nonnull @.str.3) #16
  br label %14

14:                                               ; preds = %5, %2
  %15 = getelementptr inbounds nuw i8, ptr %0, i64 24
  %16 = load ptr, ptr %15, align 8
  %17 = load ptr, ptr %1, align 8
  %18 = getelementptr inbounds nuw i8, ptr %17, i64 128
  %19 = load ptr, ptr %18, align 8
  %20 = tail call noundef nonnull align 8 dereferenceable(8) ptr %19(ptr noundef nonnull align 8 dereferenceable(8) %1, ptr noundef nonnull align 8 dereferenceable(34) %16) #16
  ret void
}